target datalayout = "e-m:e-p270:32:32-p271:32:32-p272:64:64-i64:64-i128:128-f80:128-n8:16:32:64-S128"
target triple = "x86_64-pc-linux-gnu"

@sivVALUE = internal global i64 0, align 8

; Function Attrs: nounwind sspstrong uwtable
define internal i64 @ossl_asn1obj_get_sn(i64 noundef %0) #0 {
  %2 = alloca i64, align 8
  %3 = alloca i64, align 8
  %4 = alloca i64, align 8
  %5 = alloca i32, align 4
  store i64 %0, ptr %2, align 8, !tbaa !20
  call void @llvm.lifetime.start.p0(i64 8, ptr %3) #16
  call void @llvm.lifetime.start.p0(i64 8, ptr %4) #16
  store i64 4, ptr %4, align 8, !tbaa !20
  call void @llvm.lifetime.start.p0(i64 4, ptr %5) #16
  %6 = load i64, ptr %2, align 8, !tbaa !20
  %7 = load i64, ptr @sivVALUE, align 8, !tbaa !20
  %8 = call i64 @rb_attr_get(i64 noundef %6, i64 noundef %7)
  store i64 %8, ptr %3, align 8, !tbaa !20
  %9 = call ptr @rb_string_value_cstr(ptr noundef %3)
  %10 = call i32 @OBJ_txt2nid(ptr noundef %9)
  store i32 %10, ptr %5, align 4, !tbaa !17
  %11 = icmp ne i32 %10, 0
  br i1 %11, label %12, label %16

12:                                               ; preds = %1
  %13 = load i32, ptr %5, align 4, !tbaa !17
  %14 = call ptr @OBJ_nid2sn(i32 noundef %13)
  %15 = call i64 @rb_str_new_cstr(ptr noundef %14)
  store i64 %15, ptr %4, align 8, !tbaa !20
  br label %16

16:                                               ; preds = %12, %1
  %17 = load i64, ptr %4, align 8, !tbaa !20
  call void @llvm.lifetime.end.p0(i64 4, ptr %5) #16
  call void @llvm.lifetime.end.p0(i64 8, ptr %4) #16
  call void @llvm.lifetime.end.p0(i64 8, ptr %3) #16
  ret i64 %17
}